target datalayout = "e-m:e-p270:32:32-p271:32:32-p272:64:64-i64:64-i128:128-f80:128-n8:16:32:64-S128"
target triple = "x86_64-pc-linux-gnu"

; Function Attrs: nounwind uwtable
define void @stb__From16Bit(ptr noundef %0, i16 noundef zeroext %1) #0 {
  %3 = alloca ptr, align 8
  %4 = alloca i16, align 2
  %5 = alloca i32, align 4
  %6 = alloca i32, align 4
  %7 = alloca i32, align 4
  store ptr %0, ptr %3, align 8, !tbaa !7
  store i16 %1, ptr %4, align 2, !tbaa !10
  call void @llvm.lifetime.start.p0(i64 4, ptr %5) #4
  %8 = load i16, ptr %4, align 2, !tbaa !10
  %9 = zext i16 %8 to i32
  %10 = and i32 %9, 63488
  %11 = ashr i32 %10, 11
  store i32 %11, ptr %5, align 4, !tbaa !3
  call void @llvm.lifetime.start.p0(i64 4, ptr %6) #4
  %12 = load i16, ptr %4, align 2, !tbaa !10
  %13 = zext i16 %12 to i32
  %14 = and i32 %13, 2016
  %15 = ashr i32 %14, 5
  store i32 %15, ptr %6, align 4, !tbaa !3
  call void @llvm.lifetime.start.p0(i64 4, ptr %7) #4
  %16 = load i16, ptr %4, align 2, !tbaa !10
  %17 = zext i16 %16 to i32
  %18 = and i32 %17, 31
  %19 = ashr i32 %18, 0
  store i32 %19, ptr %7, align 4, !tbaa !3
  %20 = load i32, ptr %5, align 4, !tbaa !3
  %21 = mul nsw i32 %20, 33
  %22 = ashr i32 %21, 2
  %23 = trunc i32 %22 to i8
  %24 = load ptr, ptr %3, align 8, !tbaa !7
  %25 = getelementptr inbounds i8, ptr %24, i64 0
  store i8 %23, ptr %25, align 1, !tbaa !12
  %26 = load i32, ptr %6, align 4, !tbaa !3
  %27 = mul nsw i32 %26, 65
  %28 = ashr i32 %27, 4
  %29 = trunc i32 %28 to i8
  %30 = load ptr, ptr %3, align 8, !tbaa !7
  %31 = getelementptr inbounds i8, ptr %30, i64 1
  store i8 %29, ptr %31, align 1, !tbaa !12
  %32 = load i32, ptr %7, align 4, !tbaa !3
  %33 = mul nsw i32 %32, 33
  %34 = ashr i32 %33, 2
  %35 = trunc i32 %34 to i8
  %36 = load ptr, ptr %3, align 8, !tbaa !7
  %37 = getelementptr inbounds i8, ptr %36, i64 2
  store i8 %35, ptr %37, align 1, !tbaa !12
  %38 = load ptr, ptr %3, align 8, !tbaa !7
  %39 = getelementptr inbounds i8, ptr %38, i64 3
  store i8 0, ptr %39, align 1, !tbaa !12
  call void @llvm.lifetime.end.p0(i64 4, ptr %7) #4
  call void @llvm.lifetime.end.p0(i64 4, ptr %6) #4
  call void @llvm.lifetime.end.p0(i64 4, ptr %5) #4
  ret void
}