; Function Attrs: mustprogress nofree norecurse nosync nounwind willreturn memory(argmem: write) uwtable
define void @stb__From16Bit(ptr noundef writeonly captures(none) initializes((0, 4)) %0, i16 noundef zeroext %1) local_unnamed_addr #2 {
  %3 = lshr i16 %1, 11
  %4 = lshr i16 %1, 5
  %5 = and i16 %4, 63
  %6 = and i16 %1, 31
  %7 = mul nuw nsw i16 %3, 33
  %8 = lshr i16 %7, 2
  %9 = trunc nuw i16 %8 to i8
  store i8 %9, ptr %0, align 1, !tbaa !3
  %10 = mul nuw nsw i16 %5, 65
  %11 = lshr i16 %10, 4
  %12 = trunc nuw i16 %11 to i8
  %13 = getelementptr inbounds nuw i8, ptr %0, i64 1
  store i8 %12, ptr %13, align 1, !tbaa !3
  %narrow = mul nuw nsw i16 %6, 33
  %14 = lshr i16 %narrow, 2
  %15 = trunc nuw i16 %14 to i8
  %16 = getelementptr inbounds nuw i8, ptr %0, i64 2
  store i8 %15, ptr %16, align 1, !tbaa !3
  %17 = getelementptr inbounds nuw i8, ptr %0, i64 3
  store i8 0, ptr %17, align 1, !tbaa !3
  ret void
}